; Function Attrs: nounwind uwtable
define internal ptr @unicode_decodeutf7(ptr readnone captures(none) %0, ptr noundef %1) #0 {
  %3 = alloca ptr, align 8
  %4 = alloca i64, align 8
  %5 = alloca ptr, align 8
  call void @llvm.lifetime.start.p0(i64 8, ptr nonnull %3) #4
  call void @llvm.lifetime.start.p0(i64 8, ptr nonnull %4) #4
  call void @llvm.lifetime.start.p0(i64 8, ptr nonnull %5) #4
  store ptr null, ptr %5, align 8, !tbaa !3
  %6 = call i32 (ptr, ptr, ...) @PyArg_ParseTuple(ptr noundef %1, ptr noundef nonnull @.str.378, ptr noundef nonnull %3, ptr noundef nonnull %4, ptr noundef nonnull %5) #4
  %.not = icmp eq i32 %6, 0
  br i1 %.not, label %12, label %7

7:                                                ; preds = %2
  %8 = load ptr, ptr %3, align 8, !tbaa !3
  %9 = load i64, ptr %4, align 8, !tbaa !10
  %10 = load ptr, ptr %5, align 8, !tbaa !3
  %11 = call ptr @PyUnicode_DecodeUTF7(ptr noundef %8, i64 noundef %9, ptr noundef %10) #4
  br label %12

12:                                               ; preds = %2, %7
  %.0 = phi ptr [ %11, %7 ], [ null, %2 ]
  call void @llvm.lifetime.end.p0(i64 8, ptr nonnull %5) #4
  call void @llvm.lifetime.end.p0(i64 8, ptr nonnull %4) #4
  call void @llvm.lifetime.end.p0(i64 8, ptr nonnull %3) #4
  ret ptr %.0
}